; Function Attrs: nounwind uwtable
define void @event_logv_(i32 noundef %0, ptr noundef %1, ptr noundef %2, ptr noundef %3) local_unnamed_addr #4 {
  %5 = alloca [1024 x i8], align 16
  call void @llvm.lifetime.start.p0(i64 1024, ptr nonnull %5) #12
  %6 = icmp ne i32 %0, 0
  %7 = load i32, ptr @event_debug_logging_mask_, align 4
  %8 = icmp ne i32 %7, 0
  %or.cond = select i1 %6, i1 true, i1 %8
  br i1 %or.cond, label %9, label %event_log.exit

9:                                                ; preds = %4
  %.not = icmp eq ptr %2, null
  br i1 %.not, label %12, label %10

10:                                               ; preds = %9
  %11 = call i32 @evutil_vsnprintf(ptr noundef nonnull %5, i64 noundef 1024, ptr noundef nonnull %2, ptr noundef %3) #12
  br label %13

12:                                               ; preds = %9
  store i8 0, ptr %5, align 16
  br label %13

13:                                               ; preds = %12, %10
  %.not12 = icmp eq ptr %1, null
  br i1 %.not12, label %21, label %14

14:                                               ; preds = %13
  %15 = call i64 @strlen(ptr noundef nonnull dereferenceable(1) %5) #15
  %16 = icmp ult i64 %15, 1021
  br i1 %16, label %17, label %21

17:                                               ; preds = %14
  %18 = getelementptr inbounds nuw i8, ptr %5, i64 %15
  %19 = sub nuw nsw i64 1024, %15
  %20 = call i32 (ptr, i64, ptr, ...) @evutil_snprintf(ptr noundef nonnull %18, i64 noundef %19, ptr noundef nonnull @.str, ptr noundef nonnull %1) #12
  br label %21

21:                                               ; preds = %14, %17, %13
  %22 = load ptr, ptr @log_fn, align 8
  %.not.i = icmp eq ptr %22, null
  br i1 %.not.i, label %24, label %23

23:                                               ; preds = %21
  call void %22(i32 noundef %0, ptr noundef nonnull %5) #12
  br label %event_log.exit

24:                                               ; preds = %21
  %25 = icmp ult i32 %0, 4
  br i1 %25, label %switch.lookup, label %27

switch.lookup:                                    ; preds = %24
  %26 = zext nneg i32 %0 to i64
  %switch.gep = getelementptr inbounds nuw [4 x ptr], ptr @switch.table.event_logv_, i64 0, i64 %26
  %switch.load = load ptr, ptr %switch.gep, align 8
  br label %27

27:                                               ; preds = %24, %switch.lookup
  %.0.i = phi ptr [ %switch.load, %switch.lookup ], [ @.str.5, %24 ]
  %28 = load ptr, ptr @stderr, align 8
  %29 = call i32 (ptr, ptr, ...) @fprintf(ptr noundef %28, ptr noundef nonnull @.str.6, ptr noundef nonnull %.0.i, ptr noundef nonnull %5) #16
  br label %event_log.exit

event_log.exit:                                   ; preds = %27, %23, %4
  call void @llvm.lifetime.end.p0(i64 1024, ptr nonnull %5) #12
  ret void
}